; Function Attrs: mustprogress uwtable
define void @_ZN19OpenColorIO_v2_5dev13GpuShaderDescC2Ev(ptr noundef nonnull writeonly align 8 captures(none) dereferenceable(16) initializes((0, 8)) %0) unnamed_addr #0 align 2 personality ptr @__gxx_personality_v0 {
  store ptr getelementptr inbounds nuw inrange(-16, 192) (i8, ptr @_ZTVN19OpenColorIO_v2_5dev16GpuShaderCreatorE, i64 16), ptr %0, align 8, !tbaa !3
  %2 = tail call noalias noundef nonnull dereferenceable(472) ptr @_Znwm(i64 noundef 472) #24
  invoke void @_ZN19OpenColorIO_v2_5dev16GpuShaderCreator4ImplC2Ev(ptr noundef nonnull align 8 dereferenceable(472) %2)
          to label %_ZN19OpenColorIO_v2_5dev16GpuShaderCreatorC2Ev.exit unwind label %3

3:                                                ; preds = %1
  %4 = landingpad { ptr, i32 }
          cleanup
  tail call void @_ZdlPvm(ptr noundef nonnull %2, i64 noundef 472) #25
  resume { ptr, i32 } %4

_ZN19OpenColorIO_v2_5dev16GpuShaderCreatorC2Ev.exit: ; preds = %1
  %5 = getelementptr inbounds nuw i8, ptr %0, i64 8
  store ptr %2, ptr %5, align 8, !tbaa !6
  store ptr getelementptr inbounds nuw inrange(-16, 256) (i8, ptr @_ZTVN19OpenColorIO_v2_5dev13GpuShaderDescE, i64 16), ptr %0, align 8, !tbaa !3
  ret void
}